target datalayout = "e-m:e-p270:32:32-p271:32:32-p272:64:64-i64:64-i128:128-f80:128-n8:16:32:64-S128"
target triple = "x86_64-pc-linux-gnu"

@.str.257 = private unnamed_addr constant [24 x i8] c"BGP Monitoring Protocol\00", align 1
@.str.258 = private unnamed_addr constant [4 x i8] c"BMP\00", align 1
@.str.259 = private unnamed_addr constant [4 x i8] c"bmp\00", align 1
@proto_bmp = internal global i32 0, align 4
@bmp_handle = internal global ptr null, align 8
@.str.260 = private unnamed_addr constant [10 x i8] c"desegment\00", align 1
@.str.261 = private unnamed_addr constant [55 x i8] c"Reassemble BMP messages spanning multiple TCP segments\00", align 1
@.str.262 = private unnamed_addr constant [204 x i8] c"Whether the BMP dissector should reassemble messages spanning multiple TCP segments. To use this option, you must also enable \22Allow subdissectors to reassemble TCP streams\22 in the TCP protocol settings.\00", align 1
@bmp_desegment = internal global i8 1, align 1

; Function Attrs: null_pointer_is_valid sspstrong uwtable
define hidden void @proto_register_bmp() #0 {
  %1 = alloca ptr, align 8
  %2 = alloca ptr, align 8
  call void @llvm.lifetime.start.p0(i64 8, ptr %1) #6
  call void @llvm.lifetime.start.p0(i64 8, ptr %2) #6
  %3 = call i32 @proto_register_protocol(ptr noundef @.str.257, ptr noundef @.str.258, ptr noundef @.str.259)
  store i32 %3, ptr @proto_bmp, align 4
  %4 = load i32, ptr @proto_bmp, align 4
  %5 = call ptr @register_dissector(ptr noundef @.str.259, ptr noundef @dissect_bmp, i32 noundef %4)
  store ptr %5, ptr @bmp_handle, align 8
  %6 = load i32, ptr @proto_bmp, align 4
  call void @proto_register_field_array(i32 noundef %6, ptr noundef @proto_register_bmp.hf, i32 noundef 146)
  call void @proto_register_subtree_array(ptr noundef @proto_register_bmp.ett, i32 noundef 23)
  %7 = load i32, ptr @proto_bmp, align 4
  %8 = call ptr @expert_register_protocol(i32 noundef %7)
  store ptr %8, ptr %1, align 8
  %9 = load ptr, ptr %1, align 8
  call void @expert_register_field_array(ptr noundef %9, ptr noundef @proto_register_bmp.ei, i32 noundef 4)
  %10 = load i32, ptr @proto_bmp, align 4
  %11 = call ptr @prefs_register_protocol(i32 noundef %10, ptr noundef null)
  store ptr %11, ptr %2, align 8
  %12 = load ptr, ptr %2, align 8
  call void @prefs_register_bool_preference(ptr noundef %12, ptr noundef @.str.260, ptr noundef @.str.261, ptr noundef @.str.262, ptr noundef @bmp_desegment)
  call void @llvm.lifetime.end.p0(i64 8, ptr %2) #6
  call void @llvm.lifetime.end.p0(i64 8, ptr %1) #6
  ret void
}