; Function Attrs: null_pointer_is_valid sspstrong uwtable
define hidden void @proto_register_bmp() local_unnamed_addr #0 {
  %1 = tail call i32 @proto_register_protocol(ptr noundef nonnull @.str.257, ptr noundef nonnull @.str.258, ptr noundef nonnull @.str.259)
  store i32 %1, ptr @proto_bmp, align 4
  %2 = tail call ptr @register_dissector(ptr noundef nonnull @.str.259, ptr noundef nonnull @dissect_bmp, i32 noundef %1)
  store ptr %2, ptr @bmp_handle, align 8
  %3 = load i32, ptr @proto_bmp, align 4
  tail call void @proto_register_field_array(i32 noundef %3, ptr noundef nonnull @proto_register_bmp.hf, i32 noundef 146)
  tail call void @proto_register_subtree_array(ptr noundef nonnull @proto_register_bmp.ett, i32 noundef 23)
  %4 = load i32, ptr @proto_bmp, align 4
  %5 = tail call ptr @expert_register_protocol(i32 noundef %4)
  tail call void @expert_register_field_array(ptr noundef %5, ptr noundef nonnull @proto_register_bmp.ei, i32 noundef 4)
  %6 = load i32, ptr @proto_bmp, align 4
  %7 = tail call ptr @prefs_register_protocol(i32 noundef %6, ptr noundef null)
  tail call void @prefs_register_bool_preference(ptr noundef %7, ptr noundef nonnull @.str.260, ptr noundef nonnull @.str.261, ptr noundef nonnull @.str.262, ptr noundef nonnull @bmp_desegment)
  ret void
}